; Function Attrs: mustprogress nounwind uwtable
define hidden void @_ZN2cv3hfs9MagnitudeD2Ev(ptr noundef nonnull readonly align 8 captures(none) dereferenceable(88) %0) unnamed_addr #4 align 2 personality ptr @__gxx_personality_v0 {
  %2 = getelementptr inbounds nuw i8, ptr %0, i64 72
  %3 = load ptr, ptr %2, align 8, !tbaa !26
  %.not.i.i = icmp eq ptr %3, null
  br i1 %.not.i.i, label %_ZNSt12__shared_ptrIN2cv3hfs7orutils5ImageIhEELN9__gnu_cxx12_Lock_policyE2EED2Ev.exit, label %4

4:                                                ; preds = %1
  %5 = getelementptr inbounds nuw i8, ptr %3, i64 8
  %6 = load atomic i64, ptr %5 acquire, align 8
  %7 = icmp eq i64 %6, 4294967297
  %8 = trunc i64 %6 to i32
  br i1 %7, label %9, label %17

9:                                                ; preds = %4
  store i32 0, ptr %5, align 8, !tbaa !13
  %10 = getelementptr inbounds nuw i8, ptr %3, i64 12
  store i32 0, ptr %10, align 4, !tbaa !16
  %11 = load ptr, ptr %3, align 8, !tbaa !3
  %12 = getelementptr inbounds nuw i8, ptr %11, i64 16
  %13 = load ptr, ptr %12, align 8
  tail call void %13(ptr noundef nonnull align 8 dereferenceable(16) %3) #16
  %14 = load ptr, ptr %3, align 8, !tbaa !3
  %15 = getelementptr inbounds nuw i8, ptr %14, i64 24
  %16 = load ptr, ptr %15, align 8
  tail call void %16(ptr noundef nonnull align 8 dereferenceable(16) %3) #16
  br label %_ZNSt12__shared_ptrIN2cv3hfs7orutils5ImageIhEELN9__gnu_cxx12_Lock_policyE2EED2Ev.exit

17:                                               ; preds = %4
  %18 = load i8, ptr @__libc_single_threaded, align 1, !tbaa !24
  %.not.i.i.i = icmp eq i8 %18, 0
  br i1 %.not.i.i.i, label %21, label %19

19:                                               ; preds = %17
  %20 = add nsw i32 %8, -1
  store i32 %20, ptr %5, align 4, !tbaa !25
  br label %_ZN9__gnu_cxx27__exchange_and_add_dispatchEPii.exit.i.i.i

21:                                               ; preds = %17
  %22 = atomicrmw volatile add ptr %5, i32 -1 acq_rel, align 4
  br label %_ZN9__gnu_cxx27__exchange_and_add_dispatchEPii.exit.i.i.i

_ZN9__gnu_cxx27__exchange_and_add_dispatchEPii.exit.i.i.i: ; preds = %21, %19
  %.0.i.i.i.i = phi i32 [ %8, %19 ], [ %22, %21 ]
  %23 = icmp eq i32 %.0.i.i.i.i, 1
  br i1 %23, label %24, label %_ZNSt12__shared_ptrIN2cv3hfs7orutils5ImageIhEELN9__gnu_cxx12_Lock_policyE2EED2Ev.exit, !prof !27

24:                                               ; preds = %_ZN9__gnu_cxx27__exchange_and_add_dispatchEPii.exit.i.i.i
  tail call void @_ZNSt16_Sp_counted_baseILN9__gnu_cxx12_Lock_policyE2EE24_M_release_last_use_coldEv(ptr noundef nonnull align 8 dereferenceable(16) %3) #16
  br label %_ZNSt12__shared_ptrIN2cv3hfs7orutils5ImageIhEELN9__gnu_cxx12_Lock_policyE2EED2Ev.exit

_ZNSt12__shared_ptrIN2cv3hfs7orutils5ImageIhEELN9__gnu_cxx12_Lock_policyE2EED2Ev.exit: ; preds = %1, %9, %_ZN9__gnu_cxx27__exchange_and_add_dispatchEPii.exit.i.i.i, %24
  %25 = getelementptr inbounds nuw i8, ptr %0, i64 56
  %26 = load ptr, ptr %25, align 8, !tbaa !26
  %.not.i.i1 = icmp eq ptr %26, null
  br i1 %.not.i.i1, label %_ZNSt12__shared_ptrIN2cv3hfs7orutils5ImageIhEELN9__gnu_cxx12_Lock_policyE2EED2Ev.exit5, label %27

27:                                               ; preds = %_ZNSt12__shared_ptrIN2cv3hfs7orutils5ImageIhEELN9__gnu_cxx12_Lock_policyE2EED2Ev.exit
  %28 = getelementptr inbounds nuw i8, ptr %26, i64 8
  %29 = load atomic i64, ptr %28 acquire, align 8
  %30 = icmp eq i64 %29, 4294967297
  %31 = trunc i64 %29 to i32
  br i1 %30, label %32, label %40

32:                                               ; preds = %27
  store i32 0, ptr %28, align 8, !tbaa !13
  %33 = getelementptr inbounds nuw i8, ptr %26, i64 12
  store i32 0, ptr %33, align 4, !tbaa !16
  %34 = load ptr, ptr %26, align 8, !tbaa !3
  %35 = getelementptr inbounds nuw i8, ptr %34, i64 16
  %36 = load ptr, ptr %35, align 8
  tail call void %36(ptr noundef nonnull align 8 dereferenceable(16) %26) #16
  %37 = load ptr, ptr %26, align 8, !tbaa !3
  %38 = getelementptr inbounds nuw i8, ptr %37, i64 24
  %39 = load ptr, ptr %38, align 8
  tail call void %39(ptr noundef nonnull align 8 dereferenceable(16) %26) #16
  br label %_ZNSt12__shared_ptrIN2cv3hfs7orutils5ImageIhEELN9__gnu_cxx12_Lock_policyE2EED2Ev.exit5

40:                                               ; preds = %27
  %41 = load i8, ptr @__libc_single_threaded, align 1, !tbaa !24
  %.not.i.i.i2 = icmp eq i8 %41, 0
  br i1 %.not.i.i.i2, label %44, label %42

42:                                               ; preds = %40
  %43 = add nsw i32 %31, -1
  store i32 %43, ptr %28, align 4, !tbaa !25
  br label %_ZN9__gnu_cxx27__exchange_and_add_dispatchEPii.exit.i.i.i3

44:                                               ; preds = %40
  %45 = atomicrmw volatile add ptr %28, i32 -1 acq_rel, align 4
  br label %_ZN9__gnu_cxx27__exchange_and_add_dispatchEPii.exit.i.i.i3

_ZN9__gnu_cxx27__exchange_and_add_dispatchEPii.exit.i.i.i3: ; preds = %44, %42
  %.0.i.i.i.i4 = phi i32 [ %31, %42 ], [ %45, %44 ]
  %46 = icmp eq i32 %.0.i.i.i.i4, 1
  br i1 %46, label %47, label %_ZNSt12__shared_ptrIN2cv3hfs7orutils5ImageIhEELN9__gnu_cxx12_Lock_policyE2EED2Ev.exit5, !prof !27

47:                                               ; preds = %_ZN9__gnu_cxx27__exchange_and_add_dispatchEPii.exit.i.i.i3
  tail call void @_ZNSt16_Sp_counted_baseILN9__gnu_cxx12_Lock_policyE2EE24_M_release_last_use_coldEv(ptr noundef nonnull align 8 dereferenceable(16) %26) #16
  br label %_ZNSt12__shared_ptrIN2cv3hfs7orutils5ImageIhEELN9__gnu_cxx12_Lock_policyE2EED2Ev.exit5

_ZNSt12__shared_ptrIN2cv3hfs7orutils5ImageIhEELN9__gnu_cxx12_Lock_policyE2EED2Ev.exit5: ; preds = %_ZNSt12__shared_ptrIN2cv3hfs7orutils5ImageIhEELN9__gnu_cxx12_Lock_policyE2EED2Ev.exit, %32, %_ZN9__gnu_cxx27__exchange_and_add_dispatchEPii.exit.i.i.i3, %47
  %48 = getelementptr inbounds nuw i8, ptr %0, i64 40
  %49 = load ptr, ptr %48, align 8, !tbaa !26
  %.not.i.i6 = icmp eq ptr %49, null
  br i1 %.not.i.i6, label %_ZNSt12__shared_ptrIN2cv3hfs7orutils5ImageIiEELN9__gnu_cxx12_Lock_policyE2EED2Ev.exit, label %50

50:                                               ; preds = %_ZNSt12__shared_ptrIN2cv3hfs7orutils5ImageIhEELN9__gnu_cxx12_Lock_policyE2EED2Ev.exit5
  %51 = getelementptr inbounds nuw i8, ptr %49, i64 8
  %52 = load atomic i64, ptr %51 acquire, align 8
  %53 = icmp eq i64 %52, 4294967297
  %54 = trunc i64 %52 to i32
  br i1 %53, label %55, label %63

55:                                               ; preds = %50
  store i32 0, ptr %51, align 8, !tbaa !13
  %56 = getelementptr inbounds nuw i8, ptr %49, i64 12
  store i32 0, ptr %56, align 4, !tbaa !16
  %57 = load ptr, ptr %49, align 8, !tbaa !3
  %58 = getelementptr inbounds nuw i8, ptr %57, i64 16
  %59 = load ptr, ptr %58, align 8
  tail call void %59(ptr noundef nonnull align 8 dereferenceable(16) %49) #16
  %60 = load ptr, ptr %49, align 8, !tbaa !3
  %61 = getelementptr inbounds nuw i8, ptr %60, i64 24
  %62 = load ptr, ptr %61, align 8
  tail call void %62(ptr noundef nonnull align 8 dereferenceable(16) %49) #16
  br label %_ZNSt12__shared_ptrIN2cv3hfs7orutils5ImageIiEELN9__gnu_cxx12_Lock_policyE2EED2Ev.exit

63:                                               ; preds = %50
  %64 = load i8, ptr @__libc_single_threaded, align 1, !tbaa !24
  %.not.i.i.i7 = icmp eq i8 %64, 0
  br i1 %.not.i.i.i7, label %67, label %65

65:                                               ; preds = %63
  %66 = add nsw i32 %54, -1
  store i32 %66, ptr %51, align 4, !tbaa !25
  br label %_ZN9__gnu_cxx27__exchange_and_add_dispatchEPii.exit.i.i.i8

67:                                               ; preds = %63
  %68 = atomicrmw volatile add ptr %51, i32 -1 acq_rel, align 4
  br label %_ZN9__gnu_cxx27__exchange_and_add_dispatchEPii.exit.i.i.i8

_ZN9__gnu_cxx27__exchange_and_add_dispatchEPii.exit.i.i.i8: ; preds = %67, %65
  %.0.i.i.i.i9 = phi i32 [ %54, %65 ], [ %68, %67 ]
  %69 = icmp eq i32 %.0.i.i.i.i9, 1
  br i1 %69, label %70, label %_ZNSt12__shared_ptrIN2cv3hfs7orutils5ImageIiEELN9__gnu_cxx12_Lock_policyE2EED2Ev.exit, !prof !27

70:                                               ; preds = %_ZN9__gnu_cxx27__exchange_and_add_dispatchEPii.exit.i.i.i8
  tail call void @_ZNSt16_Sp_counted_baseILN9__gnu_cxx12_Lock_policyE2EE24_M_release_last_use_coldEv(ptr noundef nonnull align 8 dereferenceable(16) %49) #16
  br label %_ZNSt12__shared_ptrIN2cv3hfs7orutils5ImageIiEELN9__gnu_cxx12_Lock_policyE2EED2Ev.exit

_ZNSt12__shared_ptrIN2cv3hfs7orutils5ImageIiEELN9__gnu_cxx12_Lock_policyE2EED2Ev.exit: ; preds = %_ZNSt12__shared_ptrIN2cv3hfs7orutils5ImageIhEELN9__gnu_cxx12_Lock_policyE2EED2Ev.exit5, %55, %_ZN9__gnu_cxx27__exchange_and_add_dispatchEPii.exit.i.i.i8, %70
  %71 = getelementptr inbounds nuw i8, ptr %0, i64 24
  %72 = load ptr, ptr %71, align 8, !tbaa !26
  %.not.i.i10 = icmp eq ptr %72, null
  br i1 %.not.i.i10, label %_ZNSt12__shared_ptrIN2cv3hfs7orutils5ImageIiEELN9__gnu_cxx12_Lock_policyE2EED2Ev.exit14, label %73

73:                                               ; preds = %_ZNSt12__shared_ptrIN2cv3hfs7orutils5ImageIiEELN9__gnu_cxx12_Lock_policyE2EED2Ev.exit
  %74 = getelementptr inbounds nuw i8, ptr %72, i64 8
  %75 = load atomic i64, ptr %74 acquire, align 8
  %76 = icmp eq i64 %75, 4294967297
  %77 = trunc i64 %75 to i32
  br i1 %76, label %78, label %86

78:                                               ; preds = %73
  store i32 0, ptr %74, align 8, !tbaa !13
  %79 = getelementptr inbounds nuw i8, ptr %72, i64 12
  store i32 0, ptr %79, align 4, !tbaa !16
  %80 = load ptr, ptr %72, align 8, !tbaa !3
  %81 = getelementptr inbounds nuw i8, ptr %80, i64 16
  %82 = load ptr, ptr %81, align 8
  tail call void %82(ptr noundef nonnull align 8 dereferenceable(16) %72) #16
  %83 = load ptr, ptr %72, align 8, !tbaa !3
  %84 = getelementptr inbounds nuw i8, ptr %83, i64 24
  %85 = load ptr, ptr %84, align 8
  tail call void %85(ptr noundef nonnull align 8 dereferenceable(16) %72) #16
  br label %_ZNSt12__shared_ptrIN2cv3hfs7orutils5ImageIiEELN9__gnu_cxx12_Lock_policyE2EED2Ev.exit14

86:                                               ; preds = %73
  %87 = load i8, ptr @__libc_single_threaded, align 1, !tbaa !24
  %.not.i.i.i11 = icmp eq i8 %87, 0
  br i1 %.not.i.i.i11, label %90, label %88

88:                                               ; preds = %86
  %89 = add nsw i32 %77, -1
  store i32 %89, ptr %74, align 4, !tbaa !25
  br label %_ZN9__gnu_cxx27__exchange_and_add_dispatchEPii.exit.i.i.i12

90:                                               ; preds = %86
  %91 = atomicrmw volatile add ptr %74, i32 -1 acq_rel, align 4
  br label %_ZN9__gnu_cxx27__exchange_and_add_dispatchEPii.exit.i.i.i12

_ZN9__gnu_cxx27__exchange_and_add_dispatchEPii.exit.i.i.i12: ; preds = %90, %88
  %.0.i.i.i.i13 = phi i32 [ %77, %88 ], [ %91, %90 ]
  %92 = icmp eq i32 %.0.i.i.i.i13, 1
  br i1 %92, label %93, label %_ZNSt12__shared_ptrIN2cv3hfs7orutils5ImageIiEELN9__gnu_cxx12_Lock_policyE2EED2Ev.exit14, !prof !27

93:                                               ; preds = %_ZN9__gnu_cxx27__exchange_and_add_dispatchEPii.exit.i.i.i12
  tail call void @_ZNSt16_Sp_counted_baseILN9__gnu_cxx12_Lock_policyE2EE24_M_release_last_use_coldEv(ptr noundef nonnull align 8 dereferenceable(16) %72) #16
  br label %_ZNSt12__shared_ptrIN2cv3hfs7orutils5ImageIiEELN9__gnu_cxx12_Lock_policyE2EED2Ev.exit14

_ZNSt12__shared_ptrIN2cv3hfs7orutils5ImageIiEELN9__gnu_cxx12_Lock_policyE2EED2Ev.exit14: ; preds = %_ZNSt12__shared_ptrIN2cv3hfs7orutils5ImageIiEELN9__gnu_cxx12_Lock_policyE2EED2Ev.exit, %78, %_ZN9__gnu_cxx27__exchange_and_add_dispatchEPii.exit.i.i.i12, %93
  %94 = getelementptr inbounds nuw i8, ptr %0, i64 8
  %95 = load ptr, ptr %94, align 8, !tbaa !26
  %.not.i.i15 = icmp eq ptr %95, null
  br i1 %.not.i.i15, label %_ZNSt12__shared_ptrIN2cv3hfs7orutils5ImageIiEELN9__gnu_cxx12_Lock_policyE2EED2Ev.exit19, label %96

96:                                               ; preds = %_ZNSt12__shared_ptrIN2cv3hfs7orutils5ImageIiEELN9__gnu_cxx12_Lock_policyE2EED2Ev.exit14
  %97 = getelementptr inbounds nuw i8, ptr %95, i64 8
  %98 = load atomic i64, ptr %97 acquire, align 8
  %99 = icmp eq i64 %98, 4294967297
  %100 = trunc i64 %98 to i32
  br i1 %99, label %101, label %109

101:                                              ; preds = %96
  store i32 0, ptr %97, align 8, !tbaa !13
  %102 = getelementptr inbounds nuw i8, ptr %95, i64 12
  store i32 0, ptr %102, align 4, !tbaa !16
  %103 = load ptr, ptr %95, align 8, !tbaa !3
  %104 = getelementptr inbounds nuw i8, ptr %103, i64 16
  %105 = load ptr, ptr %104, align 8
  tail call void %105(ptr noundef nonnull align 8 dereferenceable(16) %95) #16
  %106 = load ptr, ptr %95, align 8, !tbaa !3
  %107 = getelementptr inbounds nuw i8, ptr %106, i64 24
  %108 = load ptr, ptr %107, align 8
  tail call void %108(ptr noundef nonnull align 8 dereferenceable(16) %95) #16
  br label %_ZNSt12__shared_ptrIN2cv3hfs7orutils5ImageIiEELN9__gnu_cxx12_Lock_policyE2EED2Ev.exit19

109:                                              ; preds = %96
  %110 = load i8, ptr @__libc_single_threaded, align 1, !tbaa !24
  %.not.i.i.i16 = icmp eq i8 %110, 0
  br i1 %.not.i.i.i16, label %113, label %111

111:                                              ; preds = %109
  %112 = add nsw i32 %100, -1
  store i32 %112, ptr %97, align 4, !tbaa !25
  br label %_ZN9__gnu_cxx27__exchange_and_add_dispatchEPii.exit.i.i.i17

113:                                              ; preds = %109
  %114 = atomicrmw volatile add ptr %97, i32 -1 acq_rel, align 4
  br label %_ZN9__gnu_cxx27__exchange_and_add_dispatchEPii.exit.i.i.i17

_ZN9__gnu_cxx27__exchange_and_add_dispatchEPii.exit.i.i.i17: ; preds = %113, %111
  %.0.i.i.i.i18 = phi i32 [ %100, %111 ], [ %114, %113 ]
  %115 = icmp eq i32 %.0.i.i.i.i18, 1
  br i1 %115, label %116, label %_ZNSt12__shared_ptrIN2cv3hfs7orutils5ImageIiEELN9__gnu_cxx12_Lock_policyE2EED2Ev.exit19, !prof !27

116:                                              ; preds = %_ZN9__gnu_cxx27__exchange_and_add_dispatchEPii.exit.i.i.i17
  tail call void @_ZNSt16_Sp_counted_baseILN9__gnu_cxx12_Lock_policyE2EE24_M_release_last_use_coldEv(ptr noundef nonnull align 8 dereferenceable(16) %95) #16
  br label %_ZNSt12__shared_ptrIN2cv3hfs7orutils5ImageIiEELN9__gnu_cxx12_Lock_policyE2EED2Ev.exit19

_ZNSt12__shared_ptrIN2cv3hfs7orutils5ImageIiEELN9__gnu_cxx12_Lock_policyE2EED2Ev.exit19: ; preds = %_ZNSt12__shared_ptrIN2cv3hfs7orutils5ImageIiEELN9__gnu_cxx12_Lock_policyE2EED2Ev.exit14, %101, %_ZN9__gnu_cxx27__exchange_and_add_dispatchEPii.exit.i.i.i17, %116
  ret void
}